target datalayout = "e-m:e-p270:32:32-p271:32:32-p272:64:64-i64:64-i128:128-f80:128-n8:16:32:64-S128"
target triple = "x86_64-pc-linux-gnu"

%struct.gstack_s = type { ptr, ptr, %struct.list_s, %struct.list_s, %struct.list_s, ptr }
%struct.list_s = type { ptr, ptr }
%struct.item_s = type { i32, %union.s, ptr, ptr }
%union.s = type { ptr }

@S = internal global ptr null, align 8
@stderr = external global ptr, align 8
@.str.7 = private unnamed_addr constant [58 x i8] c"integer overflow when trying to allocate %zu * %zu bytes\0A\00", align 1
@.str.8 = private unnamed_addr constant [49 x i8] c"out of memory when trying to allocate %zu bytes\0A\00", align 1

; Function Attrs: inlinehint nounwind uwtable
define internal ptr @gv_calloc(i64 noundef %0, i64 noundef %1) #6 {
  %3 = alloca i64, align 8
  %4 = alloca i64, align 8
  %5 = alloca ptr, align 8
  store i64 %0, ptr %3, align 8, !tbaa !7
  store i64 %1, ptr %4, align 8, !tbaa !7
  %6 = load i64, ptr %3, align 8, !tbaa !7
  %7 = icmp ugt i64 %6, 0
  br i1 %7, label %8, label %18

8:                                                ; preds = %2
  %9 = load i64, ptr %3, align 8, !tbaa !7
  %10 = udiv i64 -1, %9
  %11 = load i64, ptr %4, align 8, !tbaa !7
  %12 = icmp ult i64 %10, %11
  br i1 %12, label %13, label %18

13:                                               ; preds = %8
  %14 = load ptr, ptr @stderr, align 8, !tbaa !53
  %15 = load i64, ptr %3, align 8, !tbaa !7
  %16 = load i64, ptr %4, align 8, !tbaa !7
  %17 = call i32 (ptr, ptr, ...) @fprintf(ptr noundef %14, ptr noundef @.str.7, i64 noundef %15, i64 noundef %16) #14
  call void @graphviz_exit(i32 noundef 1) #18
  unreachable

18:                                               ; preds = %8, %2
  call void @llvm.lifetime.start.p0(i64 8, ptr %5) #14
  %19 = load i64, ptr %3, align 8, !tbaa !7
  %20 = load i64, ptr %4, align 8, !tbaa !7
  %21 = call noalias ptr @calloc(i64 noundef %19, i64 noundef %20) #19
  store ptr %21, ptr %5, align 8, !tbaa !64
  %22 = load i64, ptr %3, align 8, !tbaa !7
  %23 = icmp ugt i64 %22, 0
  br i1 %23, label %24, label %36

24:                                               ; preds = %18
  %25 = load i64, ptr %4, align 8, !tbaa !7
  %26 = icmp ugt i64 %25, 0
  br i1 %26, label %27, label %36

27:                                               ; preds = %24
  %28 = load ptr, ptr %5, align 8, !tbaa !64
  %29 = icmp eq ptr %28, null
  br i1 %29, label %30, label %36

30:                                               ; preds = %27
  %31 = load ptr, ptr @stderr, align 8, !tbaa !53
  %32 = load i64, ptr %3, align 8, !tbaa !7
  %33 = load i64, ptr %4, align 8, !tbaa !7
  %34 = mul i64 %32, %33
  %35 = call i32 (ptr, ptr, ...) @fprintf(ptr noundef %31, ptr noundef @.str.8, i64 noundef %34) #14
  call void @graphviz_exit(i32 noundef 1) #18
  unreachable

36:                                               ; preds = %27, %24, %18
  %37 = load ptr, ptr %5, align 8, !tbaa !64
  call void @llvm.lifetime.end.p0(i64 8, ptr %5) #14
  ret ptr %37
}

; Function Attrs: inlinehint nounwind uwtable
define internal ptr @gv_alloc(i64 noundef %0) #6 {
  %2 = alloca i64, align 8
  store i64 %0, ptr %2, align 8, !tbaa !7
  %3 = load i64, ptr %2, align 8, !tbaa !7
  %4 = call ptr @gv_calloc(i64 noundef 1, i64 noundef %3)
  ret ptr %4
}

; Function Attrs: nounwind uwtable
define internal ptr @newitem(i32 noundef %0, ptr noundef %1, ptr noundef %2) #0 {
  %4 = alloca i32, align 4
  %5 = alloca ptr, align 8
  %6 = alloca ptr, align 8
  %7 = alloca ptr, align 8
  store i32 %0, ptr %4, align 4, !tbaa !3
  store ptr %1, ptr %5, align 8, !tbaa !64
  store ptr %2, ptr %6, align 8, !tbaa !9
  call void @llvm.lifetime.start.p0(i64 8, ptr %7) #14
  %8 = call ptr @gv_alloc(i64 noundef 32)
  store ptr %8, ptr %7, align 8, !tbaa !35
  %9 = load i32, ptr %4, align 4, !tbaa !3
  %10 = load ptr, ptr %7, align 8, !tbaa !35
  %11 = getelementptr inbounds nuw %struct.item_s, ptr %10, i32 0, i32 0
  store i32 %9, ptr %11, align 8, !tbaa !36
  %12 = load ptr, ptr %5, align 8, !tbaa !64
  %13 = load ptr, ptr %7, align 8, !tbaa !35
  %14 = getelementptr inbounds nuw %struct.item_s, ptr %13, i32 0, i32 1
  store ptr %12, ptr %14, align 8, !tbaa !14
  %15 = load ptr, ptr %6, align 8, !tbaa !9
  %16 = load ptr, ptr %7, align 8, !tbaa !35
  %17 = getelementptr inbounds nuw %struct.item_s, ptr %16, i32 0, i32 2
  store ptr %15, ptr %17, align 8, !tbaa !38
  %18 = load ptr, ptr %7, align 8, !tbaa !35
  call void @llvm.lifetime.end.p0(i64 8, ptr %7) #14
  ret ptr %18
}

; Function Attrs: nounwind uwtable
define internal void @listapp(ptr noundef %0, ptr noundef %1) #0 {
  %3 = alloca ptr, align 8
  %4 = alloca ptr, align 8
  store ptr %0, ptr %3, align 8, !tbaa !65
  store ptr %1, ptr %4, align 8, !tbaa !35
  %5 = load ptr, ptr %3, align 8, !tbaa !65
  %6 = getelementptr inbounds nuw %struct.list_s, ptr %5, i32 0, i32 1
  %7 = load ptr, ptr %6, align 8, !tbaa !67
  %8 = icmp ne ptr %7, null
  br i1 %8, label %9, label %15

9:                                                ; preds = %2
  %10 = load ptr, ptr %4, align 8, !tbaa !35
  %11 = load ptr, ptr %3, align 8, !tbaa !65
  %12 = getelementptr inbounds nuw %struct.list_s, ptr %11, i32 0, i32 1
  %13 = load ptr, ptr %12, align 8, !tbaa !67
  %14 = getelementptr inbounds nuw %struct.item_s, ptr %13, i32 0, i32 3
  store ptr %10, ptr %14, align 8, !tbaa !39
  br label %15

15:                                               ; preds = %9, %2
  %16 = load ptr, ptr %4, align 8, !tbaa !35
  %17 = load ptr, ptr %3, align 8, !tbaa !65
  %18 = getelementptr inbounds nuw %struct.list_s, ptr %17, i32 0, i32 1
  store ptr %16, ptr %18, align 8, !tbaa !67
  %19 = load ptr, ptr %3, align 8, !tbaa !65
  %20 = getelementptr inbounds nuw %struct.list_s, ptr %19, i32 0, i32 0
  %21 = load ptr, ptr %20, align 8, !tbaa !68
  %22 = icmp eq ptr %21, null
  br i1 %22, label %23, label %27

23:                                               ; preds = %15
  %24 = load ptr, ptr %4, align 8, !tbaa !35
  %25 = load ptr, ptr %3, align 8, !tbaa !65
  %26 = getelementptr inbounds nuw %struct.list_s, ptr %25, i32 0, i32 0
  store ptr %24, ptr %26, align 8, !tbaa !68
  br label %27

27:                                               ; preds = %23, %15
  ret void
}

; Function Attrs: nounwind uwtable
define internal ptr @cons_subg(ptr noundef %0) #0 {
  %2 = alloca ptr, align 8
  store ptr %0, ptr %2, align 8, !tbaa !18
  %3 = load ptr, ptr %2, align 8, !tbaa !18
  %4 = call ptr @newitem(i32 noundef 262, ptr noundef %3, ptr noundef null)
  ret ptr %4
}

; Function Attrs: nounwind uwtable
define internal ptr @cons_list(ptr noundef %0) #0 {
  %2 = alloca ptr, align 8
  store ptr %0, ptr %2, align 8, !tbaa !35
  %3 = load ptr, ptr %2, align 8, !tbaa !35
  %4 = call ptr @newitem(i32 noundef 265, ptr noundef %3, ptr noundef null)
  ret ptr %4
}

; Function Attrs: nounwind uwtable
define internal void @getedgeitems() #0 {
  %1 = alloca ptr, align 8
  call void @llvm.lifetime.start.p0(i64 8, ptr %1) #14
  store ptr null, ptr %1, align 8, !tbaa !35
  %2 = load ptr, ptr @S, align 8, !tbaa !22
  %3 = getelementptr inbounds nuw %struct.gstack_s, ptr %2, i32 0, i32 2
  %4 = getelementptr inbounds nuw %struct.list_s, ptr %3, i32 0, i32 0
  %5 = load ptr, ptr %4, align 8, !tbaa !49
  %6 = icmp ne ptr %5, null
  br i1 %6, label %7, label %19

7:                                                ; preds = %0
  %8 = load ptr, ptr @S, align 8, !tbaa !22
  %9 = getelementptr inbounds nuw %struct.gstack_s, ptr %8, i32 0, i32 2
  %10 = getelementptr inbounds nuw %struct.list_s, ptr %9, i32 0, i32 0
  %11 = load ptr, ptr %10, align 8, !tbaa !49
  %12 = call ptr @cons_list(ptr noundef %11)
  store ptr %12, ptr %1, align 8, !tbaa !35
  %13 = load ptr, ptr @S, align 8, !tbaa !22
  %14 = getelementptr inbounds nuw %struct.gstack_s, ptr %13, i32 0, i32 2
  %15 = getelementptr inbounds nuw %struct.list_s, ptr %14, i32 0, i32 1
  store ptr null, ptr %15, align 8, !tbaa !51
  %16 = load ptr, ptr @S, align 8, !tbaa !22
  %17 = getelementptr inbounds nuw %struct.gstack_s, ptr %16, i32 0, i32 2
  %18 = getelementptr inbounds nuw %struct.list_s, ptr %17, i32 0, i32 0
  store ptr null, ptr %18, align 8, !tbaa !49
  br label %32

19:                                               ; preds = %0
  %20 = load ptr, ptr @S, align 8, !tbaa !22
  %21 = getelementptr inbounds nuw %struct.gstack_s, ptr %20, i32 0, i32 1
  %22 = load ptr, ptr %21, align 8, !tbaa !48
  %23 = icmp ne ptr %22, null
  br i1 %23, label %24, label %29

24:                                               ; preds = %19
  %25 = load ptr, ptr @S, align 8, !tbaa !22
  %26 = getelementptr inbounds nuw %struct.gstack_s, ptr %25, i32 0, i32 1
  %27 = load ptr, ptr %26, align 8, !tbaa !48
  %28 = call ptr @cons_subg(ptr noundef %27)
  store ptr %28, ptr %1, align 8, !tbaa !35
  br label %29

29:                                               ; preds = %24, %19
  %30 = load ptr, ptr @S, align 8, !tbaa !22
  %31 = getelementptr inbounds nuw %struct.gstack_s, ptr %30, i32 0, i32 1
  store ptr null, ptr %31, align 8, !tbaa !48
  br label %32

32:                                               ; preds = %29, %7
  %33 = load ptr, ptr %1, align 8, !tbaa !35
  %34 = icmp ne ptr %33, null
  br i1 %34, label %35, label %39

35:                                               ; preds = %32
  %36 = load ptr, ptr @S, align 8, !tbaa !22
  %37 = getelementptr inbounds nuw %struct.gstack_s, ptr %36, i32 0, i32 3
  %38 = load ptr, ptr %1, align 8, !tbaa !35
  call void @listapp(ptr noundef %37, ptr noundef %38)
  br label %39

39:                                               ; preds = %35, %32
  call void @llvm.lifetime.end.p0(i64 8, ptr %1) #14
  ret void
}