; Function Attrs: nofree nounwind uwtable
define internal fastcc void @getedgeitems() unnamed_addr #6 {
  %1 = load ptr, ptr @S, align 8, !tbaa !8
  %2 = getelementptr inbounds nuw i8, ptr %1, i64 16
  %3 = load ptr, ptr %2, align 8, !tbaa !43
  %.not = icmp eq ptr %3, null
  br i1 %.not, label %11, label %4

4:                                                ; preds = %0
  %5 = tail call noalias dereferenceable_or_null(32) ptr @calloc(i64 noundef 1, i64 noundef range(i64 8193, 73) 32) #21
  %6 = icmp eq ptr %5, null
  br i1 %6, label %7, label %.thread

7:                                                ; preds = %4
  %8 = load ptr, ptr @stderr, align 8, !tbaa !22
  %9 = tail call i32 (ptr, ptr, ...) @fprintf(ptr noundef %8, ptr noundef nonnull @.str.8, i64 noundef 32) #22
  tail call fastcc void @graphviz_exit() #23
  unreachable

.thread:                                          ; preds = %4
  store i32 265, ptr %5, align 8, !tbaa !26
  %10 = getelementptr inbounds nuw i8, ptr %5, i64 8
  store ptr %3, ptr %10, align 8, !tbaa !7
  tail call void @llvm.memset.p0.i64(ptr noundef nonnull align 8 dereferenceable(16) %2, i8 0, i64 16, i1 false)
  br label %22

11:                                               ; preds = %0
  %12 = getelementptr inbounds nuw i8, ptr %1, i64 8
  %13 = load ptr, ptr %12, align 8, !tbaa !38
  %.not4 = icmp eq ptr %13, null
  br i1 %.not4, label %listapp.exit, label %14

14:                                               ; preds = %11
  %15 = tail call noalias dereferenceable_or_null(32) ptr @calloc(i64 noundef 1, i64 noundef range(i64 8193, 73) 32) #21
  %16 = icmp eq ptr %15, null
  br i1 %16, label %17, label %20

17:                                               ; preds = %14
  %18 = load ptr, ptr @stderr, align 8, !tbaa !22
  %19 = tail call i32 (ptr, ptr, ...) @fprintf(ptr noundef %18, ptr noundef nonnull @.str.8, i64 noundef 32) #22
  tail call fastcc void @graphviz_exit() #23
  unreachable

20:                                               ; preds = %14
  store i32 262, ptr %15, align 8, !tbaa !26
  %21 = getelementptr inbounds nuw i8, ptr %15, i64 8
  store ptr %13, ptr %21, align 8, !tbaa !7
  store ptr null, ptr %12, align 8, !tbaa !38
  br label %22

22:                                               ; preds = %20, %.thread
  %.08 = phi ptr [ %5, %.thread ], [ %15, %20 ]
  %23 = getelementptr inbounds nuw i8, ptr %1, i64 32
  %24 = getelementptr inbounds nuw i8, ptr %1, i64 40
  %25 = load ptr, ptr %24, align 8, !tbaa !39
  %.not.i = icmp eq ptr %25, null
  br i1 %.not.i, label %28, label %26

26:                                               ; preds = %22
  %27 = getelementptr inbounds nuw i8, ptr %25, i64 24
  store ptr %.08, ptr %27, align 8, !tbaa !31
  br label %28

28:                                               ; preds = %26, %22
  store ptr %.08, ptr %24, align 8, !tbaa !39
  %29 = load ptr, ptr %23, align 8, !tbaa !11
  %30 = icmp eq ptr %29, null
  br i1 %30, label %31, label %listapp.exit

31:                                               ; preds = %28
  store ptr %.08, ptr %23, align 8, !tbaa !11
  br label %listapp.exit

listapp.exit:                                     ; preds = %11, %31, %28
  ret void
}